; Function Attrs: nounwind uwtable
define void @Aig_NodeFixBufferFanins(ptr noundef %0, ptr noundef %1, i32 noundef %2) local_unnamed_addr #0 {
  %4 = getelementptr inbounds nuw i8, ptr %0, i64 204
  %5 = load i32, ptr %4, align 4, !tbaa !49
  %6 = add nsw i32 %5, 1
  store i32 %6, ptr %4, align 4, !tbaa !49
  %7 = getelementptr i8, ptr %1, i64 24
  %.val17 = load i64, ptr %7, align 8
  %8 = and i64 %.val17, 7
  %.not = icmp eq i64 %8, 3
  %9 = getelementptr i8, ptr %1, i64 8
  %.val18 = load ptr, ptr %9, align 8, !tbaa !31
  %10 = tail call ptr @Aig_ObjReal_rec(ptr noundef %.val18) #11
  br i1 %.not, label %11, label %12

11:                                               ; preds = %3
  tail call void @Aig_ObjPatchFanin0(ptr noundef nonnull %0, ptr noundef nonnull %1, ptr noundef %10)
  br label %21

12:                                               ; preds = %3
  %13 = getelementptr i8, ptr %1, i64 16
  %.val20 = load ptr, ptr %13, align 8, !tbaa !32
  %14 = tail call ptr @Aig_ObjReal_rec(ptr noundef %.val20) #11
  %.val21 = load i64, ptr %7, align 8
  %15 = trunc i64 %.val21 to i32
  %16 = and i32 %15, 7
  %17 = add nsw i32 %16, -7
  %narrow.i = icmp ult i32 %17, -2
  br i1 %narrow.i, label %20, label %18

18:                                               ; preds = %12
  %19 = tail call ptr @Aig_Oper(ptr noundef nonnull %0, ptr noundef %10, ptr noundef %14, i32 noundef %16) #11
  br label %20

20:                                               ; preds = %12, %18
  %.0 = phi ptr [ %19, %18 ], [ null, %12 ]
  tail call void @Aig_ObjReplace(ptr noundef nonnull %0, ptr noundef nonnull %1, ptr noundef %.0, i32 noundef %2)
  br label %21

21:                                               ; preds = %20, %11
  ret void
}